target datalayout = "e-m:e-p270:32:32-p271:32:32-p272:64:64-i64:64-i128:128-f80:128-n8:16:32:64-S128"
target triple = "x86_64-pc-linux-gnu"

%struct.IDAMemRec = type { ptr, double, ptr, ptr, i32, double, double, ptr, i32, i32, ptr, ptr, i32, i32, i32, ptr, ptr, i32, i32, double, double, ptr, i32, i32, i32, i32, ptr, ptr, i32, ptr, ptr, ptr, i32, double, i32, i32, double, ptr, ptr, ptr, i32, ptr, ptr, i32, i32, i32, double, ptr, ptr, ptr, [6 x ptr], [6 x double], [6 x double], [6 x double], [6 x double], [6 x double], ptr, ptr, ptr, ptr, ptr, ptr, ptr, ptr, ptr, ptr, ptr, ptr, ptr, ptr, ptr, ptr, ptr, [6 x ptr], ptr, ptr, ptr, ptr, [6 x ptr], ptr, ptr, ptr, ptr, ptr, ptr, ptr, ptr, ptr, ptr, ptr, ptr, ptr, ptr, ptr, ptr, [6 x ptr], ptr, ptr, ptr, ptr, ptr, double, ptr, ptr, i32, i32, i32, i32, i32, i32, i32, i32, double, double, double, i32, double, i32, i32, i32, i32, i32, double, double, double, double, double, double, double, double, double, double, double, double, double, double, double, double, double, i32, i32, i32, i32, i64, double, double, double, double, double, double, double, double, double, i64, i64, i64, i64, i64, i64, i64, i64, i64, i64, i64, i64, i64, i64, i64, i64, i64, i64, i64, i64, i64, i64, i64, i64, i64, i64, double, i32, i32, i32, i32, i32, i32, i32, i32, i32, i32, i32, i32, i32, ptr, i32, ptr, i32, ptr, i32, ptr, ptr, ptr, ptr, ptr, ptr, i32, i32, ptr, ptr, ptr, ptr, ptr, ptr, ptr, double, i32, i32, ptr, i32, ptr, ptr, double, double, double, ptr, ptr, ptr, double, double, i32, i32, i64, ptr, i32, ptr, [5 x double], ptr, ptr, i32, ptr, i32 }

; Function Attrs: nounwind uwtable
define internal i32 @IDASensNewyyp(ptr noundef %0, double noundef %1) #0 {
  %3 = alloca ptr, align 8
  %4 = alloca double, align 8
  %5 = alloca i32, align 4
  store ptr %0, ptr %3, align 8, !tbaa !11
  store double %1, ptr %4, align 8, !tbaa !9
  call void @llvm.lifetime.start.p0(i64 4, ptr %5) #4
  %6 = load ptr, ptr %3, align 8, !tbaa !11
  %7 = getelementptr inbounds nuw %struct.IDAMemRec, ptr %6, i32 0, i32 104
  %8 = load i32, ptr %7, align 8, !tbaa !24
  %9 = icmp eq i32 %8, 1
  br i1 %9, label %10, label %90

10:                                               ; preds = %2
  store i32 0, ptr %5, align 4, !tbaa !7
  br label %11

11:                                               ; preds = %86, %10
  %12 = load i32, ptr %5, align 4, !tbaa !7
  %13 = load ptr, ptr %3, align 8, !tbaa !11
  %14 = getelementptr inbounds nuw %struct.IDAMemRec, ptr %13, i32 0, i32 24
  %15 = load i32, ptr %14, align 8, !tbaa !35
  %16 = icmp slt i32 %12, %15
  br i1 %16, label %17, label %89

17:                                               ; preds = %11
  %18 = load ptr, ptr %3, align 8, !tbaa !11
  %19 = getelementptr inbounds nuw %struct.IDAMemRec, ptr %18, i32 0, i32 62
  %20 = load ptr, ptr %19, align 8, !tbaa !25
  %21 = load ptr, ptr %3, align 8, !tbaa !11
  %22 = getelementptr inbounds nuw %struct.IDAMemRec, ptr %21, i32 0, i32 85
  %23 = load ptr, ptr %22, align 8, !tbaa !68
  %24 = load i32, ptr %5, align 4, !tbaa !7
  %25 = sext i32 %24 to i64
  %26 = getelementptr inbounds ptr, ptr %23, i64 %25
  %27 = load ptr, ptr %26, align 8, !tbaa !34
  %28 = load ptr, ptr %3, align 8, !tbaa !11
  %29 = getelementptr inbounds nuw %struct.IDAMemRec, ptr %28, i32 0, i32 72
  %30 = load ptr, ptr %29, align 8, !tbaa !83
  call void @N_VProd(ptr noundef %20, ptr noundef %27, ptr noundef %30)
  %31 = load ptr, ptr %3, align 8, !tbaa !11
  %32 = getelementptr inbounds nuw %struct.IDAMemRec, ptr %31, i32 0, i32 92
  %33 = load ptr, ptr %32, align 8, !tbaa !37
  %34 = load i32, ptr %5, align 4, !tbaa !7
  %35 = sext i32 %34 to i64
  %36 = getelementptr inbounds ptr, ptr %33, i64 %35
  %37 = load ptr, ptr %36, align 8, !tbaa !34
  %38 = load ptr, ptr %3, align 8, !tbaa !11
  %39 = getelementptr inbounds nuw %struct.IDAMemRec, ptr %38, i32 0, i32 129
  %40 = load double, ptr %39, align 8, !tbaa !54
  %41 = fneg double %40
  %42 = load double, ptr %4, align 8, !tbaa !9
  %43 = fmul double %41, %42
  %44 = load ptr, ptr %3, align 8, !tbaa !11
  %45 = getelementptr inbounds nuw %struct.IDAMemRec, ptr %44, i32 0, i32 72
  %46 = load ptr, ptr %45, align 8, !tbaa !83
  %47 = load ptr, ptr %3, align 8, !tbaa !11
  %48 = getelementptr inbounds nuw %struct.IDAMemRec, ptr %47, i32 0, i32 94
  %49 = load ptr, ptr %48, align 8, !tbaa !43
  %50 = load i32, ptr %5, align 4, !tbaa !7
  %51 = sext i32 %50 to i64
  %52 = getelementptr inbounds ptr, ptr %49, i64 %51
  %53 = load ptr, ptr %52, align 8, !tbaa !34
  call void @N_VLinearSum(double noundef 1.000000e+00, ptr noundef %37, double noundef %43, ptr noundef %46, ptr noundef %53)
  %54 = load ptr, ptr %3, align 8, !tbaa !11
  %55 = getelementptr inbounds nuw %struct.IDAMemRec, ptr %54, i32 0, i32 85
  %56 = load ptr, ptr %55, align 8, !tbaa !68
  %57 = load i32, ptr %5, align 4, !tbaa !7
  %58 = sext i32 %57 to i64
  %59 = getelementptr inbounds ptr, ptr %56, i64 %58
  %60 = load ptr, ptr %59, align 8, !tbaa !34
  %61 = load ptr, ptr %3, align 8, !tbaa !11
  %62 = getelementptr inbounds nuw %struct.IDAMemRec, ptr %61, i32 0, i32 72
  %63 = load ptr, ptr %62, align 8, !tbaa !83
  %64 = load ptr, ptr %3, align 8, !tbaa !11
  %65 = getelementptr inbounds nuw %struct.IDAMemRec, ptr %64, i32 0, i32 72
  %66 = load ptr, ptr %65, align 8, !tbaa !83
  call void @N_VLinearSum(double noundef 1.000000e+00, ptr noundef %60, double noundef -1.000000e+00, ptr noundef %63, ptr noundef %66)
  %67 = load ptr, ptr %3, align 8, !tbaa !11
  %68 = getelementptr inbounds nuw %struct.IDAMemRec, ptr %67, i32 0, i32 91
  %69 = load ptr, ptr %68, align 8, !tbaa !36
  %70 = load i32, ptr %5, align 4, !tbaa !7
  %71 = sext i32 %70 to i64
  %72 = getelementptr inbounds ptr, ptr %69, i64 %71
  %73 = load ptr, ptr %72, align 8, !tbaa !34
  %74 = load double, ptr %4, align 8, !tbaa !9
  %75 = fneg double %74
  %76 = load ptr, ptr %3, align 8, !tbaa !11
  %77 = getelementptr inbounds nuw %struct.IDAMemRec, ptr %76, i32 0, i32 72
  %78 = load ptr, ptr %77, align 8, !tbaa !83
  %79 = load ptr, ptr %3, align 8, !tbaa !11
  %80 = getelementptr inbounds nuw %struct.IDAMemRec, ptr %79, i32 0, i32 93
  %81 = load ptr, ptr %80, align 8, !tbaa !41
  %82 = load i32, ptr %5, align 4, !tbaa !7
  %83 = sext i32 %82 to i64
  %84 = getelementptr inbounds ptr, ptr %81, i64 %83
  %85 = load ptr, ptr %84, align 8, !tbaa !34
  call void @N_VLinearSum(double noundef 1.000000e+00, ptr noundef %73, double noundef %75, ptr noundef %78, ptr noundef %85)
  br label %86

86:                                               ; preds = %17
  %87 = load i32, ptr %5, align 4, !tbaa !7
  %88 = add nsw i32 %87, 1
  store i32 %88, ptr %5, align 4, !tbaa !7
  br label %11

89:                                               ; preds = %11
  br label %125

90:                                               ; preds = %2
  store i32 0, ptr %5, align 4, !tbaa !7
  br label %91

91:                                               ; preds = %121, %90
  %92 = load i32, ptr %5, align 4, !tbaa !7
  %93 = load ptr, ptr %3, align 8, !tbaa !11
  %94 = getelementptr inbounds nuw %struct.IDAMemRec, ptr %93, i32 0, i32 24
  %95 = load i32, ptr %94, align 8, !tbaa !35
  %96 = icmp slt i32 %92, %95
  br i1 %96, label %97, label %124

97:                                               ; preds = %91
  %98 = load ptr, ptr %3, align 8, !tbaa !11
  %99 = getelementptr inbounds nuw %struct.IDAMemRec, ptr %98, i32 0, i32 91
  %100 = load ptr, ptr %99, align 8, !tbaa !36
  %101 = load i32, ptr %5, align 4, !tbaa !7
  %102 = sext i32 %101 to i64
  %103 = getelementptr inbounds ptr, ptr %100, i64 %102
  %104 = load ptr, ptr %103, align 8, !tbaa !34
  %105 = load double, ptr %4, align 8, !tbaa !9
  %106 = fneg double %105
  %107 = load ptr, ptr %3, align 8, !tbaa !11
  %108 = getelementptr inbounds nuw %struct.IDAMemRec, ptr %107, i32 0, i32 85
  %109 = load ptr, ptr %108, align 8, !tbaa !68
  %110 = load i32, ptr %5, align 4, !tbaa !7
  %111 = sext i32 %110 to i64
  %112 = getelementptr inbounds ptr, ptr %109, i64 %111
  %113 = load ptr, ptr %112, align 8, !tbaa !34
  %114 = load ptr, ptr %3, align 8, !tbaa !11
  %115 = getelementptr inbounds nuw %struct.IDAMemRec, ptr %114, i32 0, i32 93
  %116 = load ptr, ptr %115, align 8, !tbaa !41
  %117 = load i32, ptr %5, align 4, !tbaa !7
  %118 = sext i32 %117 to i64
  %119 = getelementptr inbounds ptr, ptr %116, i64 %118
  %120 = load ptr, ptr %119, align 8, !tbaa !34
  call void @N_VLinearSum(double noundef 1.000000e+00, ptr noundef %104, double noundef %106, ptr noundef %113, ptr noundef %120)
  br label %121

121:                                              ; preds = %97
  %122 = load i32, ptr %5, align 4, !tbaa !7
  %123 = add nsw i32 %122, 1
  store i32 %123, ptr %5, align 4, !tbaa !7
  br label %91

124:                                              ; preds = %91
  br label %125

125:                                              ; preds = %124, %89
  call void @llvm.lifetime.end.p0(i64 4, ptr %5) #4
  ret i32 0
}